; Function Attrs: mustprogress uwtable
define internal void @"_ZN9grpc_core5Party15ParticipantImplIZNS_5LatchIbE4WaitEvEUlvE_ZNS_22ClientPromiseBasedCall12StartPromiseESt10unique_ptrI19grpc_metadata_batchNS_5Arena13PooledDeleterEERKNS_16PromiseBasedCall10CompletionERNS0_11BulkSpawnerEE3$_0E7DestroyEv"(ptr noundef nonnull align 8 dereferenceable(56) %this) unnamed_addr #3 align 2 personality ptr @__gxx_personality_v0 {
entry:
  %0 = tail call align 8 ptr @llvm.threadlocal.address.p0(ptr align 8 @_ZN9grpc_core14promise_detail7ContextINS_5ArenaEE8current_E)
  %1 = load ptr, ptr %0, align 8
  %cmp.not.i = icmp eq ptr %1, null
  br i1 %cmp.not.i, label %if.then.i, label %_ZN9grpc_core10GetContextINS_5ArenaEEEPT_v.exit

if.then.i:                                        ; preds = %entry
  tail call void @gpr_assertion_failed(ptr noundef nonnull @.str.131, i32 noundef 80, ptr noundef nonnull @.str.132) #29
  unreachable

_ZN9grpc_core10GetContextINS_5ArenaEEEPT_v.exit:  ; preds = %entry
  %2 = getelementptr inbounds i8, ptr %this, i64 48
  %on_complete_.val.i.i = load i8, ptr %2, align 8
  %cmp.not.i.i.i.i = icmp eq i8 %on_complete_.val.i.i, -1
  br i1 %cmp.not.i.i.i.i, label %"_ZN9grpc_core5Arena12DeletePooledINS_5Party15ParticipantImplIZNS_5LatchIbE4WaitEvEUlvE_ZNS_22ClientPromiseBasedCall12StartPromiseESt10unique_ptrI19grpc_metadata_batchNS0_13PooledDeleterEERKNS_16PromiseBasedCall10CompletionERNS2_11BulkSpawnerEE3$_0EEEEvPT_.exit", label %if.then.i.i.i.i

if.then.i.i.i.i:                                  ; preds = %_ZN9grpc_core10GetContextINS_5ArenaEEEPT_v.exit
  invoke void @gpr_assertion_failed(ptr noundef nonnull @.str.7, i32 noundef 2090, ptr noundef nonnull @.str.116) #29
          to label %invoke.cont.i.i.i.i unwind label %terminate.lpad.i.i.i.i

invoke.cont.i.i.i.i:                              ; preds = %if.then.i.i.i.i
  unreachable

terminate.lpad.i.i.i.i:                           ; preds = %if.then.i.i.i.i
  %3 = landingpad { ptr, i32 }
          catch ptr null
  %4 = extractvalue { ptr, i32 } %3, 0
  tail call void @__clang_call_terminate(ptr %4) #30
  unreachable

"_ZN9grpc_core5Arena12DeletePooledINS_5Party15ParticipantImplIZNS_5LatchIbE4WaitEvEUlvE_ZNS_22ClientPromiseBasedCall12StartPromiseESt10unique_ptrI19grpc_metadata_batchNS0_13PooledDeleterEERKNS_16PromiseBasedCall10CompletionERNS2_11BulkSpawnerEE3$_0EEEEvPT_.exit": ; preds = %_ZN9grpc_core10GetContextINS_5ArenaEEEPT_v.exit
  tail call void @_ZN9grpc_core5Party11ParticipantD2Ev(ptr noundef nonnull align 8 dereferenceable(32) %this) #28
  tail call void @_ZdlPv(ptr noundef nonnull %this) #31
  ret void
}